(lp0
F0.11198360648725393
aF0.037564248090908386
aF0.06508004443863416
aF0.05685444272589468
aF0.05656244539707228
aF0.000356871483173667
aF0.03280256259383159
aF0.035695967011610874
aF0.009464579399916902
aF0.025386384535119322
aF-0.009074906187366545
a.